target datalayout = "e-m:e-p270:32:32-p271:32:32-p272:64:64-i64:64-i128:128-f80:128-n8:16:32:64-S128"
target triple = "x86_64-unknown-linux-gnu"

%"class.icu_75::DecimalFormat" = type { %"class.icu_75::NumberFormat.base", ptr }
%"class.icu_75::NumberFormat.base" = type { %"class.icu_75::Format.base", i8, i32, i32, i32, i32, i8, i8, [4 x i16], i32 }
%"class.icu_75::Format.base" = type <{ %"class.icu_75::UObject", [157 x i8], [157 x i8] }>
%"class.icu_75::UObject" = type { ptr }
%"struct.icu_75::number::impl::DecimalFormatFields" = type <{ [8 x i8], %"struct.icu_75::number::impl::DecimalFormatProperties", %"class.icu_75::LocalPointer.6", %"class.icu_75::number::LocalizedNumberFormatter", %"struct.std::atomic", %"struct.std::atomic", %"struct.icu_75::number::impl::DecimalFormatWarehouse", %"struct.icu_75::number::impl::DecimalFormatProperties", i8, i8, %"struct.icu_75::number::impl::DecimalFormatFields::FastFormatData", [6 x i8] }>
%"class.icu_75::LocalPointer.6" = type { %"class.icu_75::LocalPointerBase.7" }
%"class.icu_75::LocalPointerBase.7" = type { ptr }
%"class.icu_75::number::LocalizedNumberFormatter" = type { %"class.icu_75::number::NumberFormatterSettings", ptr, [8 x i8], ptr }
%"class.icu_75::number::NumberFormatterSettings" = type { %"struct.icu_75::number::impl::MacroProps" }
%"struct.icu_75::number::impl::MacroProps" = type { [4 x i8], %"class.icu_75::number::Notation", %"class.icu_75::MeasureUnit", %"class.icu_75::MeasureUnit", %"class.icu_75::number::Precision", i32, %"class.icu_75::number::impl::Grouper", %"class.icu_75::number::impl::Padder", %"class.icu_75::number::IntegerWidth", %"class.icu_75::number::impl::SymbolsWrapper", i32, i32, i8, i32, %"class.icu_75::number::Scale", %"class.icu_75::number::impl::StringProp", %"class.icu_75::number::impl::StringProp", ptr, ptr, i32, [4 x i8], %"class.icu_75::Locale" }
%"class.icu_75::number::Notation" = type { i32, %"union.icu_75::number::Notation::NotationUnion" }
%"union.icu_75::number::Notation::NotationUnion" = type { %"struct.icu_75::number::Notation::NotationUnion::ScientificSettings" }
%"struct.icu_75::number::Notation::NotationUnion::ScientificSettings" = type { i8, i8, i16, i32 }
%"class.icu_75::MeasureUnit" = type <{ %"class.icu_75::UObject", ptr, i16, i8, [5 x i8] }>
%"class.icu_75::number::Precision" = type <{ i32, [4 x i8], %"union.icu_75::number::Precision::PrecisionUnion", i32, [4 x i8] }>
%"union.icu_75::number::Precision::PrecisionUnion" = type { %"struct.icu_75::number::Precision::PrecisionUnion::IncrementSettings" }
%"struct.icu_75::number::Precision::PrecisionUnion::IncrementSettings" = type { i64, i16, i16 }
%"class.icu_75::number::impl::Grouper" = type { i16, i16, i16, i32 }
%"class.icu_75::number::impl::Padder" = type { i32, %union.anon }
%union.anon = type { %struct.anon.8 }
%struct.anon.8 = type { i32, i32 }
%"class.icu_75::number::IntegerWidth" = type <{ %union.anon.9, i8, [3 x i8] }>
%union.anon.9 = type { i32, [4 x i8] }
%"class.icu_75::number::impl::SymbolsWrapper" = type { i32, %union.anon.11 }
%union.anon.11 = type { ptr }
%"class.icu_75::number::Scale" = type <{ i32, [4 x i8], ptr, i32, [4 x i8] }>
%"class.icu_75::number::impl::StringProp" = type { ptr, i16, i32 }
%"class.icu_75::Locale" = type <{ %"class.icu_75::UObject", [12 x i8], [6 x i8], [4 x i8], [2 x i8], i32, [4 x i8], ptr, [157 x i8], [3 x i8], ptr, i8, [7 x i8] }>
%"struct.std::atomic" = type { %"struct.std::__atomic_base" }
%"struct.std::__atomic_base" = type { ptr }
%"struct.icu_75::number::impl::DecimalFormatWarehouse" = type { [8 x i8], %"class.icu_75::number::impl::AutoAffixPatternProvider", %"class.icu_75::LocalPointer.12" }
%"class.icu_75::number::impl::AutoAffixPatternProvider" = type { %"class.icu_75::number::impl::PropertiesAffixPatternProvider", %"class.icu_75::number::impl::CurrencyPluralInfoAffixProvider" }
%"class.icu_75::number::impl::PropertiesAffixPatternProvider" = type <{ %"class.icu_75::number::impl::AffixPatternProvider", %"class.icu_75::UnicodeString", %"class.icu_75::UnicodeString", %"class.icu_75::UnicodeString", %"class.icu_75::UnicodeString", i8, i8, i8, [5 x i8] }>
%"class.icu_75::number::impl::AffixPatternProvider" = type { ptr }
%"class.icu_75::UnicodeString" = type { %"class.icu_75::Replaceable", %"union.icu_75::UnicodeString::StackBufferOrFields" }
%"class.icu_75::Replaceable" = type { %"class.icu_75::UObject" }
%"union.icu_75::UnicodeString::StackBufferOrFields" = type { %struct.anon.0, [32 x i8] }
%struct.anon.0 = type { i16, i32, i32, ptr }
%"class.icu_75::number::impl::CurrencyPluralInfoAffixProvider" = type <{ %"class.icu_75::number::impl::AffixPatternProvider", [8 x %"class.icu_75::number::impl::PropertiesAffixPatternProvider"], i8, [7 x i8] }>
%"class.icu_75::LocalPointer.12" = type { %"class.icu_75::LocalPointerBase.13" }
%"class.icu_75::LocalPointerBase.13" = type { ptr }
%"struct.icu_75::number::impl::DecimalFormatProperties" = type <{ %"class.icu_75::number::impl::NullableValue", %"class.icu_75::number::impl::NullableValue.1", %"class.icu_75::number::impl::CurrencyPluralInfoWrapper", %"class.icu_75::number::impl::NullableValue.2", i8, i8, i8, i8, i8, [3 x i8], i32, i32, i8, [3 x i8], i32, i32, i32, i32, i32, i32, i32, i32, i32, i32, i32, %"class.icu_75::UnicodeString", %"class.icu_75::UnicodeString", %"class.icu_75::UnicodeString", %"class.icu_75::UnicodeString", %"class.icu_75::number::impl::NullableValue.3", %"class.icu_75::UnicodeString", i8, i8, [2 x i8], %"class.icu_75::number::impl::NullableValue.4", i8, i8, [2 x i8], i32, [4 x i8], %"class.icu_75::UnicodeString", %"class.icu_75::UnicodeString", %"class.icu_75::UnicodeString", %"class.icu_75::UnicodeString", double, %"class.icu_75::number::impl::NullableValue.5", i32, i8, [3 x i8] }>
%"class.icu_75::number::impl::NullableValue" = type { i8, i32 }
%"class.icu_75::number::impl::NullableValue.1" = type { i8, [7 x i8], %"class.icu_75::CurrencyUnit" }
%"class.icu_75::CurrencyUnit" = type { %"class.icu_75::MeasureUnit.base", [4 x i16], [4 x i8] }
%"class.icu_75::MeasureUnit.base" = type <{ %"class.icu_75::UObject", ptr, i16, i8 }>
%"class.icu_75::number::impl::CurrencyPluralInfoWrapper" = type { %"class.icu_75::LocalPointer" }
%"class.icu_75::LocalPointer" = type { %"class.icu_75::LocalPointerBase" }
%"class.icu_75::LocalPointerBase" = type { ptr }
%"class.icu_75::number::impl::NullableValue.2" = type { i8, i32 }
%"class.icu_75::number::impl::NullableValue.3" = type { i8, i32 }
%"class.icu_75::number::impl::NullableValue.4" = type { i8, i32 }
%"class.icu_75::number::impl::NullableValue.5" = type { i8, i32 }
%"struct.icu_75::number::impl::DecimalFormatFields::FastFormatData" = type { i16, i16, i16, i8, i8 }

; Function Attrs: mustprogress nounwind uwtable
define linkonce_odr noundef nonnull align 4 dereferenceable(8) ptr @_ZN6icu_756number4impl13NullableValueI19UNumberCompactStyleEaSERKS3_(ptr noundef nonnull align 4 dereferenceable(8) %this, ptr noundef nonnull align 4 dereferenceable(4) %other) #0 comdat align 2 {
entry:
  %this.addr = alloca ptr, align 8
  %other.addr = alloca ptr, align 8
  store ptr %this, ptr %this.addr, align 8
  store ptr %other, ptr %other.addr, align 8
  %this1 = load ptr, ptr %this.addr, align 8
  %0 = load ptr, ptr %other.addr, align 8
  %1 = load i32, ptr %0, align 4
  %fValue = getelementptr inbounds %"class.icu_75::number::impl::NullableValue", ptr %this1, i32 0, i32 1
  store i32 %1, ptr %fValue, align 4
  %fNull = getelementptr inbounds %"class.icu_75::number::impl::NullableValue", ptr %this1, i32 0, i32 0
  store i8 0, ptr %fNull, align 4
  ret ptr %this1
}

; Function Attrs: mustprogress nounwind uwtable
define internal noundef signext i8 @_ZL9U_FAILURE10UErrorCode(i32 noundef %code) #0 {
entry:
  %code.addr = alloca i32, align 4
  store i32 %code, ptr %code.addr, align 4
  %0 = load i32, ptr %code.addr, align 4
  %cmp = icmp sgt i32 %0, 0
  %conv = zext i1 %cmp to i8
  ret i8 %conv
}

; Function Attrs: mustprogress uwtable
define void @_ZN6icu_7520CompactDecimalFormatC2ERKNS_6LocaleE19UNumberCompactStyleR10UErrorCode(ptr noundef nonnull align 8 dereferenceable(368) %this, ptr noundef nonnull align 8 dereferenceable(217) %inLocale, i32 noundef %style, ptr noundef nonnull align 4 dereferenceable(4) %status) unnamed_addr #1 align 2 personality ptr @__gxx_personality_v0 {
entry:
  %this.addr = alloca ptr, align 8
  %inLocale.addr = alloca ptr, align 8
  %style.addr = alloca i32, align 4
  %status.addr = alloca ptr, align 8
  %cleanup.cond = alloca i1, align 1
  %exn.slot = alloca ptr, align 8
  %ehselector.slot = alloca i32, align 4
  store ptr %this, ptr %this.addr, align 8
  store ptr %inLocale, ptr %inLocale.addr, align 8
  store i32 %style, ptr %style.addr, align 4
  store ptr %status, ptr %status.addr, align 8
  %this1 = load ptr, ptr %this.addr, align 8
  %call = call noundef ptr @_ZN6icu_757UMemorynwEm(i64 noundef 2888) #7
  %new.isnull = icmp eq ptr %call, null
  store i1 false, ptr %cleanup.cond, align 1
  br i1 %new.isnull, label %new.cont, label %new.notnull

new.notnull:                                      ; preds = %entry
  store i1 true, ptr %cleanup.cond, align 1
  %0 = load ptr, ptr %inLocale.addr, align 8
  %1 = load ptr, ptr %status.addr, align 8
  invoke void @_ZN6icu_7520DecimalFormatSymbolsC1ERKNS_6LocaleER10UErrorCode(ptr noundef nonnull align 8 dereferenceable(2883) %call, ptr noundef nonnull align 8 dereferenceable(217) %0, ptr noundef nonnull align 4 dereferenceable(4) %1)
          to label %invoke.cont unwind label %lpad

invoke.cont:                                      ; preds = %new.notnull
  br label %new.cont

new.cont:                                         ; preds = %invoke.cont, %entry
  %2 = phi ptr [ %call, %invoke.cont ], [ null, %entry ]
  %3 = load ptr, ptr %status.addr, align 8
  call void @_ZN6icu_7513DecimalFormatC2EPKNS_20DecimalFormatSymbolsER10UErrorCode(ptr noundef nonnull align 8 dereferenceable(368) %this1, ptr noundef %2, ptr noundef nonnull align 4 dereferenceable(4) %3)
  store ptr getelementptr inbounds ({ [77 x ptr] }, ptr @_ZTVN6icu_7520CompactDecimalFormatE, i32 0, i32 0, i32 2), ptr %this1, align 8
  %4 = load ptr, ptr %status.addr, align 8
  %5 = load i32, ptr %4, align 4
  %call4 = invoke noundef signext i8 @_ZL9U_FAILURE10UErrorCode(i32 noundef %5)
          to label %invoke.cont3 unwind label %lpad2

invoke.cont3:                                     ; preds = %new.cont
  %tobool = icmp ne i8 %call4, 0
  br i1 %tobool, label %if.then, label %if.end

if.then:                                          ; preds = %invoke.cont3
  br label %invoke.cont11

lpad:                                             ; preds = %new.notnull
  %6 = landingpad { ptr, i32 }
          cleanup
  %7 = extractvalue { ptr, i32 } %6, 0
  store ptr %7, ptr %exn.slot, align 8
  %8 = extractvalue { ptr, i32 } %6, 1
  store i32 %8, ptr %ehselector.slot, align 4
  %cleanup.is_active = load i1, ptr %cleanup.cond, align 1
  br i1 %cleanup.is_active, label %cleanup.action, label %cleanup.done

cleanup.action:                                   ; preds = %lpad
  call void @_ZN6icu_757UMemorydlEPv(ptr noundef %call) #7
  br label %cleanup.done

cleanup.done:                                     ; preds = %cleanup.action, %lpad
  br label %eh.resume

lpad2:                                            ; preds = %invoke.cont5, %if.end, %new.cont
  %9 = landingpad { ptr, i32 }
          cleanup
  %10 = extractvalue { ptr, i32 } %9, 0
  store ptr %10, ptr %exn.slot, align 8
  %11 = extractvalue { ptr, i32 } %9, 1
  store i32 %11, ptr %ehselector.slot, align 4
  call void @_ZN6icu_7513DecimalFormatD2Ev(ptr noundef nonnull align 8 dereferenceable(368) %this1) #7
  br label %eh.resume

if.end:                                           ; preds = %invoke.cont3
  %fields = getelementptr inbounds %"class.icu_75::DecimalFormat", ptr %this1, i32 0, i32 1
  %12 = load ptr, ptr %fields, align 8
  %properties = getelementptr inbounds %"struct.icu_75::number::impl::DecimalFormatFields", ptr %12, i32 0, i32 1
  %compactStyle = getelementptr inbounds %"struct.icu_75::number::impl::DecimalFormatProperties", ptr %properties, i32 0, i32 0
  %call6 = invoke noundef nonnull align 4 dereferenceable(8) ptr @_ZN6icu_756number4impl13NullableValueI19UNumberCompactStyleEaSERKS3_(ptr noundef nonnull align 4 dereferenceable(8) %compactStyle, ptr noundef nonnull align 4 dereferenceable(4) %style.addr)
          to label %invoke.cont5 unwind label %lpad2

invoke.cont5:                                     ; preds = %if.end
  %fields7 = getelementptr inbounds %"class.icu_75::DecimalFormat", ptr %this1, i32 0, i32 1
  %13 = load ptr, ptr %fields7, align 8
  %properties8 = getelementptr inbounds %"struct.icu_75::number::impl::DecimalFormatFields", ptr %13, i32 0, i32 1
  %groupingSize = getelementptr inbounds %"struct.icu_75::number::impl::DecimalFormatProperties", ptr %properties8, i32 0, i32 11
  store i32 -2, ptr %groupingSize, align 4
  %fields9 = getelementptr inbounds %"class.icu_75::DecimalFormat", ptr %this1, i32 0, i32 1
  %14 = load ptr, ptr %fields9, align 8
  %properties10 = getelementptr inbounds %"struct.icu_75::number::impl::DecimalFormatFields", ptr %14, i32 0, i32 1
  %minimumGroupingDigits = getelementptr inbounds %"struct.icu_75::number::impl::DecimalFormatProperties", ptr %properties10, i32 0, i32 20
  store i32 2, ptr %minimumGroupingDigits, align 4
  %15 = load ptr, ptr %status.addr, align 8
  invoke void @_ZN6icu_7513DecimalFormat5touchER10UErrorCode(ptr noundef nonnull align 8 dereferenceable(368) %this1, ptr noundef nonnull align 4 dereferenceable(4) %15)
          to label %invoke.cont11 unwind label %lpad2

invoke.cont11:                                    ; preds = %invoke.cont5, %if.then
  ret void

eh.resume:                                        ; preds = %lpad2, %cleanup.done
  %exn = load ptr, ptr %exn.slot, align 8
  %sel = load i32, ptr %ehselector.slot, align 4
  %lpad.val = insertvalue { ptr, i32 } poison, ptr %exn, 0
  %lpad.val12 = insertvalue { ptr, i32 } %lpad.val, i32 %sel, 1
  resume { ptr, i32 } %lpad.val12
}