; Function Attrs: mustprogress uwtable
define void @_ZN6icu_7520CompactDecimalFormatC2ERKNS_6LocaleE19UNumberCompactStyleR10UErrorCode(ptr noundef nonnull align 8 dereferenceable(368) %this, ptr noundef nonnull align 8 dereferenceable(217) %inLocale, i32 noundef %style, ptr noundef nonnull align 4 dereferenceable(4) %status) unnamed_addr #1 align 2 personality ptr @__gxx_personality_v0 {
entry:
  %call = tail call noundef ptr @_ZN6icu_757UMemorynwEm(i64 noundef 2888) #10
  %new.isnull = icmp eq ptr %call, null
  br i1 %new.isnull, label %new.cont, label %new.notnull

new.notnull:                                      ; preds = %entry
  invoke void @_ZN6icu_7520DecimalFormatSymbolsC1ERKNS_6LocaleER10UErrorCode(ptr noundef nonnull align 8 dereferenceable(2883) %call, ptr noundef nonnull align 8 dereferenceable(217) %inLocale, ptr noundef nonnull align 4 dereferenceable(4) %status)
          to label %new.cont unwind label %lpad

new.cont:                                         ; preds = %new.notnull, %entry
  tail call void @_ZN6icu_7513DecimalFormatC2EPKNS_20DecimalFormatSymbolsER10UErrorCode(ptr noundef nonnull align 8 dereferenceable(368) %this, ptr noundef %call, ptr noundef nonnull align 4 dereferenceable(4) %status)
  store ptr getelementptr inbounds ({ [77 x ptr] }, ptr @_ZTVN6icu_7520CompactDecimalFormatE, i64 0, i32 0, i64 2), ptr %this, align 8
  %0 = load i32, ptr %status, align 4
  %cmp.i = icmp slt i32 %0, 1
  br i1 %cmp.i, label %if.end, label %invoke.cont11

lpad:                                             ; preds = %new.notnull
  %1 = landingpad { ptr, i32 }
          cleanup
  tail call void @_ZN6icu_757UMemorydlEPv(ptr noundef nonnull %call) #10
  br label %eh.resume

lpad2:                                            ; preds = %if.end
  %2 = landingpad { ptr, i32 }
          cleanup
  tail call void @_ZN6icu_7513DecimalFormatD2Ev(ptr noundef nonnull align 8 dereferenceable(368) %this) #10
  br label %eh.resume

if.end:                                           ; preds = %new.cont
  %fields = getelementptr inbounds i8, ptr %this, i64 360
  %3 = load ptr, ptr %fields, align 8
  %properties = getelementptr inbounds i8, ptr %3, i64 8
  %fValue.i = getelementptr inbounds i8, ptr %3, i64 12
  store i32 %style, ptr %fValue.i, align 4
  store i8 0, ptr %properties, align 4
  %4 = load ptr, ptr %fields, align 8
  %groupingSize = getelementptr inbounds i8, ptr %4, i64 84
  store i32 -2, ptr %groupingSize, align 4
  %5 = load ptr, ptr %fields, align 8
  %minimumGroupingDigits = getelementptr inbounds i8, ptr %5, i64 116
  store i32 2, ptr %minimumGroupingDigits, align 4
  invoke void @_ZN6icu_7513DecimalFormat5touchER10UErrorCode(ptr noundef nonnull align 8 dereferenceable(368) %this, ptr noundef nonnull align 4 dereferenceable(4) %status)
          to label %invoke.cont11 unwind label %lpad2

invoke.cont11:                                    ; preds = %new.cont, %if.end
  ret void

eh.resume:                                        ; preds = %lpad, %lpad2
  %.pn = phi { ptr, i32 } [ %2, %lpad2 ], [ %1, %lpad ]
  resume { ptr, i32 } %.pn
}